#include <math.h>
#include <stdio.h>
#include <stdlib.h>
#include <string.h>


int main(int argc, char* argv[])
{
	char s[101],d[101];
	int i,k=0;
	gets(s);
	for(i=0;i<strlen(s);i++)
	{
		if((s[i]!=32)||(s[i+1]!=32))
		{    d[k++]=s[i];
		}
	}
		d[k]='\0';
		printf("%s",d);
	return 0;
}