; ModuleID = '26/721.c'
source_filename = "26/721.c"
target datalayout = "e-m:e-p270:32:32-p271:32:32-p272:64:64-i64:64-f80:128-n8:16:32:64-S128"
target triple = "x86_64-pc-linux-gnu"

@.str = private unnamed_addr constant [3 x i8] c"%s\00", align 1

; Function Attrs: noinline nounwind uwtable
define dso_local i32 @main(i32 %0, i8** %1) #0 {
  %3 = alloca i32, align 4
  %4 = alloca i32, align 4
  %5 = alloca i8**, align 8
  %6 = alloca [101 x i8], align 16
  %7 = alloca [101 x i8], align 16
  %8 = alloca i32, align 4
  %9 = alloca i32, align 4
  store i32 0, i32* %3, align 4
  store i32 %0, i32* %4, align 4
  store i8** %1, i8*** %5, align 8
  store i32 0, i32* %9, align 4
  %10 = getelementptr inbounds [101 x i8], [101 x i8]* %6, i64 0, i64 0
  %11 = call i32 (i8*, ...) bitcast (i32 (...)* @gets to i32 (i8*, ...)*)(i8* %10)
  store i32 0, i32* %8, align 4
  br label %12

12:                                               ; preds = %43, %2
  %13 = load i32, i32* %8, align 4
  %14 = sext i32 %13 to i64
  %15 = getelementptr inbounds [101 x i8], [101 x i8]* %6, i64 0, i64 0
  %16 = call i64 @strlen(i8* %15) #3
  %17 = icmp ult i64 %14, %16
  br i1 %17, label %18, label %46

18:                                               ; preds = %12
  %19 = load i32, i32* %8, align 4
  %20 = sext i32 %19 to i64
  %21 = getelementptr inbounds [101 x i8], [101 x i8]* %6, i64 0, i64 %20
  %22 = load i8, i8* %21, align 1
  %23 = sext i8 %22 to i32
  %24 = icmp ne i32 %23, 32
  br i1 %24, label %33, label %25

25:                                               ; preds = %18
  %26 = load i32, i32* %8, align 4
  %27 = add nsw i32 %26, 1
  %28 = sext i32 %27 to i64
  %29 = getelementptr inbounds [101 x i8], [101 x i8]* %6, i64 0, i64 %28
  %30 = load i8, i8* %29, align 1
  %31 = sext i8 %30 to i32
  %32 = icmp ne i32 %31, 32
  br i1 %32, label %33, label %42

33:                                               ; preds = %25, %18
  %34 = load i32, i32* %8, align 4
  %35 = sext i32 %34 to i64
  %36 = getelementptr inbounds [101 x i8], [101 x i8]* %6, i64 0, i64 %35
  %37 = load i8, i8* %36, align 1
  %38 = load i32, i32* %9, align 4
  %39 = add nsw i32 %38, 1
  store i32 %39, i32* %9, align 4
  %40 = sext i32 %38 to i64
  %41 = getelementptr inbounds [101 x i8], [101 x i8]* %7, i64 0, i64 %40
  store i8 %37, i8* %41, align 1
  br label %42

42:                                               ; preds = %33, %25
  br label %43

43:                                               ; preds = %42
  %44 = load i32, i32* %8, align 4
  %45 = add nsw i32 %44, 1
  store i32 %45, i32* %8, align 4
  br label %12

46:                                               ; preds = %12
  %47 = load i32, i32* %9, align 4
  %48 = sext i32 %47 to i64
  %49 = getelementptr inbounds [101 x i8], [101 x i8]* %7, i64 0, i64 %48
  store i8 0, i8* %49, align 1
  %50 = getelementptr inbounds [101 x i8], [101 x i8]* %7, i64 0, i64 0
  %51 = call i32 (i8*, ...) @printf(i8* getelementptr inbounds ([3 x i8], [3 x i8]* @.str, i64 0, i64 0), i8* %50)
  ret i32 0
}

declare dso_local i32 @gets(...) #1

; Function Attrs: nounwind readonly
declare dso_local i64 @strlen(i8*) #2

declare dso_local i32 @printf(i8*, ...) #1


!llvm.module.flags = !{!0}
!llvm.ident = !{!1}

!0 = !{i32 1, !"wchar_size", i32 4}
!1 = !{!"clang version 10.0.0-4ubuntu1 "}
